target datalayout = "e-m:e-p270:32:32-p271:32:32-p272:64:64-i64:64-i128:128-f80:128-n8:16:32:64-S128"
target triple = "x86_64-unknown-linux-gnu"

%class.small_object_allocator = type { [32 x ptr], [32 x ptr], i64 }
%"struct.small_object_allocator::chunk" = type { ptr, ptr, [8176 x i8] }

; Function Attrs: mustprogress nounwind uwtable
define linkonce_odr hidden void @_ZN22small_object_allocator5chunkC2Ev(ptr noundef nonnull align 8 dereferenceable(8192) %this) unnamed_addr #4 comdat align 2 {
entry:
  %this.addr = alloca ptr, align 8
  store ptr %this, ptr %this.addr, align 8
  %this1 = load ptr, ptr %this.addr, align 8
  %m_next = getelementptr inbounds %"struct.small_object_allocator::chunk", ptr %this1, i32 0, i32 0
  store ptr null, ptr %m_next, align 8
  %m_curr = getelementptr inbounds %"struct.small_object_allocator::chunk", ptr %this1, i32 0, i32 1
  %m_data = getelementptr inbounds %"struct.small_object_allocator::chunk", ptr %this1, i32 0, i32 2
  %arraydecay = getelementptr inbounds [8176 x i8], ptr %m_data, i64 0, i64 0
  store ptr %arraydecay, ptr %m_curr, align 8
  ret void
}

; Function Attrs: mustprogress uwtable
define hidden noundef ptr @_ZN22small_object_allocator8allocateEm(ptr noundef nonnull align 8 dereferenceable(520) %this, i64 noundef %size) #5 align 2 {
entry:
  %retval = alloca ptr, align 8
  %this.addr = alloca ptr, align 8
  %size.addr = alloca i64, align 8
  %slot_id = alloca i32, align 4
  %r = alloca ptr, align 8
  %c = alloca ptr, align 8
  %new_curr = alloca ptr, align 8
  %r25 = alloca ptr, align 8
  %new_c = alloca ptr, align 8
  %r34 = alloca ptr, align 8
  store ptr %this, ptr %this.addr, align 8
  store i64 %size, ptr %size.addr, align 8
  %this1 = load ptr, ptr %this.addr, align 8
  %0 = load i64, ptr %size.addr, align 8
  %cmp = icmp eq i64 %0, 0
  br i1 %cmp, label %if.then, label %if.end

if.then:                                          ; preds = %entry
  store ptr null, ptr %retval, align 8
  br label %return

if.end:                                           ; preds = %entry
  %1 = load i64, ptr %size.addr, align 8
  %m_alloc_size = getelementptr inbounds %class.small_object_allocator, ptr %this1, i32 0, i32 2
  %2 = load i64, ptr %m_alloc_size, align 8
  %add = add i64 %2, %1
  store i64 %add, ptr %m_alloc_size, align 8
  %3 = load i64, ptr %size.addr, align 8
  %cmp2 = icmp uge i64 %3, 248
  br i1 %cmp2, label %if.then3, label %if.end4

if.then3:                                         ; preds = %if.end
  %4 = load i64, ptr %size.addr, align 8
  %call = call noalias noundef ptr @_ZN6memory8allocateEm(i64 noundef %4)
  store ptr %call, ptr %retval, align 8
  br label %return

if.end4:                                          ; preds = %if.end
  %5 = load i64, ptr %size.addr, align 8
  %shr = lshr i64 %5, 3
  %conv = trunc i64 %shr to i32
  store i32 %conv, ptr %slot_id, align 4
  %6 = load i64, ptr %size.addr, align 8
  %and = and i64 %6, 7
  %cmp5 = icmp ne i64 %and, 0
  br i1 %cmp5, label %if.then6, label %if.end7

if.then6:                                         ; preds = %if.end4
  %7 = load i32, ptr %slot_id, align 4
  %inc = add i32 %7, 1
  store i32 %inc, ptr %slot_id, align 4
  br label %if.end7

if.end7:                                          ; preds = %if.then6, %if.end4
  %m_free_list = getelementptr inbounds %class.small_object_allocator, ptr %this1, i32 0, i32 1
  %8 = load i32, ptr %slot_id, align 4
  %idxprom = zext i32 %8 to i64
  %arrayidx = getelementptr inbounds [32 x ptr], ptr %m_free_list, i64 0, i64 %idxprom
  %9 = load ptr, ptr %arrayidx, align 8
  %cmp8 = icmp ne ptr %9, null
  br i1 %cmp8, label %if.then9, label %if.end16

if.then9:                                         ; preds = %if.end7
  %m_free_list10 = getelementptr inbounds %class.small_object_allocator, ptr %this1, i32 0, i32 1
  %10 = load i32, ptr %slot_id, align 4
  %idxprom11 = zext i32 %10 to i64
  %arrayidx12 = getelementptr inbounds [32 x ptr], ptr %m_free_list10, i64 0, i64 %idxprom11
  %11 = load ptr, ptr %arrayidx12, align 8
  store ptr %11, ptr %r, align 8
  %12 = load ptr, ptr %r, align 8
  %13 = load ptr, ptr %12, align 8
  %m_free_list13 = getelementptr inbounds %class.small_object_allocator, ptr %this1, i32 0, i32 1
  %14 = load i32, ptr %slot_id, align 4
  %idxprom14 = zext i32 %14 to i64
  %arrayidx15 = getelementptr inbounds [32 x ptr], ptr %m_free_list13, i64 0, i64 %idxprom14
  store ptr %13, ptr %arrayidx15, align 8
  %15 = load ptr, ptr %r, align 8
  store ptr %15, ptr %retval, align 8
  br label %return

if.end16:                                         ; preds = %if.end7
  %m_chunks = getelementptr inbounds %class.small_object_allocator, ptr %this1, i32 0, i32 0
  %16 = load i32, ptr %slot_id, align 4
  %idxprom17 = zext i32 %16 to i64
  %arrayidx18 = getelementptr inbounds [32 x ptr], ptr %m_chunks, i64 0, i64 %idxprom17
  %17 = load ptr, ptr %arrayidx18, align 8
  store ptr %17, ptr %c, align 8
  %18 = load i32, ptr %slot_id, align 4
  %shl = shl i32 %18, 3
  %conv19 = zext i32 %shl to i64
  store i64 %conv19, ptr %size.addr, align 8
  %19 = load ptr, ptr %c, align 8
  %cmp20 = icmp ne ptr %19, null
  br i1 %cmp20, label %if.then21, label %if.end29

if.then21:                                        ; preds = %if.end16
  %20 = load ptr, ptr %c, align 8
  %m_curr = getelementptr inbounds %"struct.small_object_allocator::chunk", ptr %20, i32 0, i32 1
  %21 = load ptr, ptr %m_curr, align 8
  %22 = load i64, ptr %size.addr, align 8
  %add.ptr = getelementptr inbounds i8, ptr %21, i64 %22
  store ptr %add.ptr, ptr %new_curr, align 8
  %23 = load ptr, ptr %new_curr, align 8
  %24 = load ptr, ptr %c, align 8
  %m_data = getelementptr inbounds %"struct.small_object_allocator::chunk", ptr %24, i32 0, i32 2
  %arraydecay = getelementptr inbounds [8176 x i8], ptr %m_data, i64 0, i64 0
  %add.ptr22 = getelementptr inbounds i8, ptr %arraydecay, i64 8176
  %cmp23 = icmp ult ptr %23, %add.ptr22
  br i1 %cmp23, label %if.then24, label %if.end28

if.then24:                                        ; preds = %if.then21
  %25 = load ptr, ptr %c, align 8
  %m_curr26 = getelementptr inbounds %"struct.small_object_allocator::chunk", ptr %25, i32 0, i32 1
  %26 = load ptr, ptr %m_curr26, align 8
  store ptr %26, ptr %r25, align 8
  %27 = load ptr, ptr %new_curr, align 8
  %28 = load ptr, ptr %c, align 8
  %m_curr27 = getelementptr inbounds %"struct.small_object_allocator::chunk", ptr %28, i32 0, i32 1
  store ptr %27, ptr %m_curr27, align 8
  %29 = load ptr, ptr %r25, align 8
  store ptr %29, ptr %retval, align 8
  br label %return

if.end28:                                         ; preds = %if.then21
  br label %if.end29

if.end29:                                         ; preds = %if.end28, %if.end16
  %call30 = call noalias noundef ptr @_ZN6memory8allocateEm(i64 noundef 8192)
  call void @_ZN22small_object_allocator5chunkC2Ev(ptr noundef nonnull align 8 dereferenceable(8192) %call30)
  store ptr %call30, ptr %new_c, align 8
  %30 = load ptr, ptr %c, align 8
  %31 = load ptr, ptr %new_c, align 8
  %m_next = getelementptr inbounds %"struct.small_object_allocator::chunk", ptr %31, i32 0, i32 0
  store ptr %30, ptr %m_next, align 8
  %32 = load ptr, ptr %new_c, align 8
  %m_chunks31 = getelementptr inbounds %class.small_object_allocator, ptr %this1, i32 0, i32 0
  %33 = load i32, ptr %slot_id, align 4
  %idxprom32 = zext i32 %33 to i64
  %arrayidx33 = getelementptr inbounds [32 x ptr], ptr %m_chunks31, i64 0, i64 %idxprom32
  store ptr %32, ptr %arrayidx33, align 8
  %34 = load ptr, ptr %new_c, align 8
  %m_curr35 = getelementptr inbounds %"struct.small_object_allocator::chunk", ptr %34, i32 0, i32 1
  %35 = load ptr, ptr %m_curr35, align 8
  store ptr %35, ptr %r34, align 8
  %36 = load i64, ptr %size.addr, align 8
  %37 = load ptr, ptr %new_c, align 8
  %m_curr36 = getelementptr inbounds %"struct.small_object_allocator::chunk", ptr %37, i32 0, i32 1
  %38 = load ptr, ptr %m_curr36, align 8
  %add.ptr37 = getelementptr inbounds i8, ptr %38, i64 %36
  store ptr %add.ptr37, ptr %m_curr36, align 8
  %39 = load ptr, ptr %r34, align 8
  store ptr %39, ptr %retval, align 8
  br label %return

return:                                           ; preds = %if.end29, %if.then24, %if.then9, %if.then3, %if.then
  %40 = load ptr, ptr %retval, align 8
  ret ptr %40
}