; Function Attrs: mustprogress uwtable
define hidden noundef ptr @_ZN22small_object_allocator8allocateEm(ptr nocapture noundef nonnull align 8 dereferenceable(520) %this, i64 noundef %size) local_unnamed_addr #6 align 2 {
entry:
  %cmp = icmp eq i64 %size, 0
  br i1 %cmp, label %return, label %if.end

if.end:                                           ; preds = %entry
  %m_alloc_size = getelementptr inbounds i8, ptr %this, i64 512
  %0 = load i64, ptr %m_alloc_size, align 8
  %add = add i64 %0, %size
  store i64 %add, ptr %m_alloc_size, align 8
  %cmp2 = icmp ugt i64 %size, 247
  br i1 %cmp2, label %if.then3, label %if.end4

if.then3:                                         ; preds = %if.end
  %call = tail call noalias noundef ptr @_ZN6memory8allocateEm(i64 noundef %size)
  br label %return

if.end4:                                          ; preds = %if.end
  %shr = lshr i64 %size, 3
  %conv = trunc i64 %shr to i32
  %and = and i64 %size, 7
  %cmp5.not = icmp ne i64 %and, 0
  %inc = zext i1 %cmp5.not to i32
  %spec.select = add nuw nsw i32 %inc, %conv
  %m_free_list = getelementptr inbounds i8, ptr %this, i64 256
  %idxprom = zext nneg i32 %spec.select to i64
  %arrayidx = getelementptr inbounds [32 x ptr], ptr %m_free_list, i64 0, i64 %idxprom
  %1 = load ptr, ptr %arrayidx, align 8
  %cmp8.not = icmp eq ptr %1, null
  br i1 %cmp8.not, label %if.end16, label %if.then9

if.then9:                                         ; preds = %if.end4
  %2 = load ptr, ptr %1, align 8
  store ptr %2, ptr %arrayidx, align 8
  br label %return

if.end16:                                         ; preds = %if.end4
  %arrayidx18 = getelementptr inbounds [32 x ptr], ptr %this, i64 0, i64 %idxprom
  %3 = load ptr, ptr %arrayidx18, align 8
  %shl = shl nuw nsw i32 %spec.select, 3
  %conv19 = zext nneg i32 %shl to i64
  %cmp20.not = icmp eq ptr %3, null
  br i1 %cmp20.not, label %if.end29, label %if.then21

if.then21:                                        ; preds = %if.end16
  %m_curr = getelementptr inbounds i8, ptr %3, i64 8
  %4 = load ptr, ptr %m_curr, align 8
  %add.ptr = getelementptr inbounds i8, ptr %4, i64 %conv19
  %add.ptr22 = getelementptr inbounds i8, ptr %3, i64 8192
  %cmp23 = icmp ult ptr %add.ptr, %add.ptr22
  br i1 %cmp23, label %if.then24, label %if.end29

if.then24:                                        ; preds = %if.then21
  store ptr %add.ptr, ptr %m_curr, align 8
  br label %return

if.end29:                                         ; preds = %if.then21, %if.end16
  %call30 = tail call noalias noundef ptr @_ZN6memory8allocateEm(i64 noundef 8192)
  %m_curr.i = getelementptr inbounds i8, ptr %call30, i64 8
  %m_data.i = getelementptr inbounds i8, ptr %call30, i64 16
  store ptr %3, ptr %call30, align 8
  store ptr %call30, ptr %arrayidx18, align 8
  %add.ptr37 = getelementptr inbounds i8, ptr %m_data.i, i64 %conv19
  store ptr %add.ptr37, ptr %m_curr.i, align 8
  br label %return

return:                                           ; preds = %entry, %if.end29, %if.then24, %if.then9, %if.then3
  %retval.0 = phi ptr [ %call, %if.then3 ], [ %1, %if.then9 ], [ %4, %if.then24 ], [ %m_data.i, %if.end29 ], [ null, %entry ]
  ret ptr %retval.0
}